target datalayout = "e-m:e-p270:32:32-p271:32:32-p272:64:64-i64:64-i128:128-f80:128-n8:16:32:64-S128"
target triple = "x86_64-pc-linux-gnu"

%"struct.c4::yml::Callbacks" = type { ptr, ptr, ptr, ptr }
%"struct.c4::basic_substring.0" = type { ptr, i64 }
%"struct.c4::basic_substring" = type { ptr, i64 }
%"struct.c4::yml::Location" = type { %"struct.c4::yml::LineCol", %"struct.c4::basic_substring.0" }
%"struct.c4::yml::LineCol" = type { i64, i64, i64 }
%"class.c4::yml::Tree" = type { ptr, i64, i64, i64, i64, %"struct.c4::basic_substring", i64, %"struct.c4::yml::Callbacks", [4 x %"struct.c4::yml::TagDirective"] }
%"struct.c4::yml::TagDirective" = type { %"struct.c4::basic_substring.0", %"struct.c4::basic_substring.0", i64 }
%"struct.c4::yml::NodeData" = type { %"struct.c4::yml::NodeType", %"struct.c4::yml::NodeScalar", %"struct.c4::yml::NodeScalar", i64, i64, i64, i64, i64 }
%"struct.c4::yml::NodeType" = type { i64 }
%"struct.c4::yml::NodeScalar" = type { %"struct.c4::basic_substring.0", %"struct.c4::basic_substring.0", %"struct.c4::basic_substring.0" }

@.str = private unnamed_addr constant [128 x i8] c"generated/home/dtcxzyw/WorkSpace/Projects/compilers/llvm-opt-benchmark/bench/jsonnet/jsonnet/third_party/rapidyaml/ryml_all.hpp\00", align 1
@__const._ZN2c43yml4Tree6to_seqEmm.msg = private unnamed_addr constant [37 x i8] c"check failed: (! has_children(node))\00", align 16
@__const._ZN2c43yml4Tree6to_seqEmm.msg.172 = private unnamed_addr constant [60 x i8] c"check failed: (parent(node) == NONE || parent_is_seq(node))\00", align 16

; Function Attrs: alwaysinline mustprogress nounwind uwtable
define linkonce_odr noundef zeroext i1 @_ZNK2c43yml8NodeType6is_seqEv(ptr noundef nonnull align 8 dereferenceable(8) %0) #9 comdat align 2 {
  %2 = alloca ptr, align 8
  store ptr %0, ptr %2, align 8, !tbaa !150
  %3 = load ptr, ptr %2, align 8
  %4 = getelementptr inbounds nuw %"struct.c4::yml::NodeType", ptr %3, i32 0, i32 0
  %5 = load i64, ptr %4, align 8, !tbaa !152
  %6 = and i64 %5, 8
  %7 = icmp ne i64 %6, 0
  ret i1 %7
}

; Function Attrs: mustprogress nounwind uwtable
define linkonce_odr void @_ZN2c415basic_substringIKcEC2EPS1_m(ptr noundef nonnull align 8 dereferenceable(16) %0, ptr noundef %1, i64 noundef %2) unnamed_addr #0 comdat align 2 {
  %4 = alloca ptr, align 8
  %5 = alloca ptr, align 8
  %6 = alloca i64, align 8
  store ptr %0, ptr %4, align 8, !tbaa !45
  store ptr %1, ptr %5, align 8, !tbaa !20
  store i64 %2, ptr %6, align 8, !tbaa !15
  %7 = load ptr, ptr %4, align 8
  %8 = getelementptr inbounds nuw %"struct.c4::basic_substring.0", ptr %7, i32 0, i32 0
  %9 = load ptr, ptr %5, align 8, !tbaa !20
  store ptr %9, ptr %8, align 8, !tbaa !37
  %10 = getelementptr inbounds nuw %"struct.c4::basic_substring.0", ptr %7, i32 0, i32 1
  %11 = load i64, ptr %6, align 8, !tbaa !15
  store i64 %11, ptr %10, align 8, !tbaa !39
  ret void
}

; Function Attrs: noinline noreturn nounwind uwtable
define linkonce_odr hidden void @__clang_call_terminate(ptr noundef %0) #20 comdat {
  %2 = call ptr @__cxa_begin_catch(ptr %0) #25
  call void @_ZSt9terminatev() #27
  unreachable
}

; Function Attrs: mustprogress nounwind uwtable
define linkonce_odr void @_ZN2c415basic_substringIKcE5clearEv(ptr noundef nonnull align 8 dereferenceable(16) %0) #0 comdat align 2 {
  %2 = alloca ptr, align 8
  store ptr %0, ptr %2, align 8, !tbaa !45
  %3 = load ptr, ptr %2, align 8
  %4 = getelementptr inbounds nuw %"struct.c4::basic_substring.0", ptr %3, i32 0, i32 0
  store ptr null, ptr %4, align 8, !tbaa !37
  %5 = getelementptr inbounds nuw %"struct.c4::basic_substring.0", ptr %3, i32 0, i32 1
  store i64 0, ptr %5, align 8, !tbaa !39
  ret void
}

; Function Attrs: alwaysinline mustprogress nounwind uwtable
define linkonce_odr void @_ZN2c43yml8NodeTypeC2Em(ptr noundef nonnull align 8 dereferenceable(8) %0, i64 noundef %1) unnamed_addr #9 comdat align 2 {
  %3 = alloca ptr, align 8
  %4 = alloca i64, align 8
  store ptr %0, ptr %3, align 8, !tbaa !150
  store i64 %1, ptr %4, align 8, !tbaa !15
  %5 = load ptr, ptr %3, align 8
  %6 = getelementptr inbounds nuw %"struct.c4::yml::NodeType", ptr %5, i32 0, i32 0
  %7 = load i64, ptr %4, align 8, !tbaa !15
  store i64 %7, ptr %6, align 8, !tbaa !152
  ret void
}

; Function Attrs: alwaysinline mustprogress nounwind uwtable
define linkonce_odr void @_ZN2c43yml4Tree17_check_next_flagsEmm(ptr noundef nonnull align 8 dereferenceable(256) %0, i64 noundef %1, i64 noundef %2) #9 comdat align 2 {
  %4 = alloca ptr, align 8
  %5 = alloca i64, align 8
  %6 = alloca i64, align 8
  store ptr %0, ptr %4, align 8, !tbaa !96
  store i64 %1, ptr %5, align 8, !tbaa !15
  store i64 %2, ptr %6, align 8, !tbaa !15
  ret void
}

; Function Attrs: alwaysinline mustprogress uwtable
define linkonce_odr noundef zeroext i1 @_ZNK2c43yml4Tree6is_seqEm(ptr noundef nonnull align 8 dereferenceable(256) %0, i64 noundef %1) #21 comdat align 2 {
  %3 = alloca ptr, align 8
  %4 = alloca i64, align 8
  store ptr %0, ptr %3, align 8, !tbaa !96
  store i64 %1, ptr %4, align 8, !tbaa !15
  %5 = load ptr, ptr %3, align 8
  %6 = load i64, ptr %4, align 8, !tbaa !15
  %7 = call noundef ptr @_ZNK2c43yml4Tree2_pEm(ptr noundef nonnull align 8 dereferenceable(256) %5, i64 noundef %6)
  %8 = getelementptr inbounds nuw %"struct.c4::yml::NodeData", ptr %7, i32 0, i32 0
  %9 = call noundef zeroext i1 @_ZNK2c43yml8NodeType6is_seqEv(ptr noundef nonnull align 8 dereferenceable(8) %8)
  ret i1 %9
}

; Function Attrs: inlinehint mustprogress uwtable
define linkonce_odr { ptr, i64 } @_ZN2c410to_csubstrEPKc(ptr noundef %0) #19 comdat {
  %2 = alloca %"struct.c4::basic_substring.0", align 8
  %3 = alloca ptr, align 8
  store ptr %0, ptr %3, align 8, !tbaa !20
  %4 = load ptr, ptr %3, align 8, !tbaa !20
  %5 = load ptr, ptr %3, align 8, !tbaa !20
  %6 = icmp ne ptr %5, null
  br i1 %6, label %7, label %10

7:                                                ; preds = %1
  %8 = load ptr, ptr %3, align 8, !tbaa !20
  %9 = call i64 @strlen(ptr noundef %8) #26
  br label %11

10:                                               ; preds = %1
  br label %11

11:                                               ; preds = %10, %7
  %12 = phi i64 [ %9, %7 ], [ 0, %10 ]
  call void @_ZN2c415basic_substringIKcEC2EPS1_m(ptr noundef nonnull align 8 dereferenceable(16) %2, ptr noundef %4, i64 noundef %12)
  %13 = load { ptr, i64 }, ptr %2, align 8
  ret { ptr, i64 } %13
}

; Function Attrs: mustprogress nounwind uwtable
define linkonce_odr void @_ZN2c43yml7LineColC2Emmm(ptr noundef nonnull align 8 dereferenceable(24) %0, i64 noundef %1, i64 noundef %2, i64 noundef %3) unnamed_addr #0 comdat align 2 {
  %5 = alloca ptr, align 8
  %6 = alloca i64, align 8
  %7 = alloca i64, align 8
  %8 = alloca i64, align 8
  store ptr %0, ptr %5, align 8, !tbaa !355
  store i64 %1, ptr %6, align 8, !tbaa !15
  store i64 %2, ptr %7, align 8, !tbaa !15
  store i64 %3, ptr %8, align 8, !tbaa !15
  %9 = load ptr, ptr %5, align 8
  %10 = getelementptr inbounds nuw %"struct.c4::yml::LineCol", ptr %9, i32 0, i32 0
  %11 = load i64, ptr %6, align 8, !tbaa !15
  store i64 %11, ptr %10, align 8, !tbaa !80
  %12 = getelementptr inbounds nuw %"struct.c4::yml::LineCol", ptr %9, i32 0, i32 1
  %13 = load i64, ptr %7, align 8, !tbaa !15
  store i64 %13, ptr %12, align 8, !tbaa !78
  %14 = getelementptr inbounds nuw %"struct.c4::yml::LineCol", ptr %9, i32 0, i32 2
  %15 = load i64, ptr %8, align 8, !tbaa !15
  store i64 %15, ptr %14, align 8, !tbaa !79
  ret void
}

; Function Attrs: inlinehint mustprogress nounwind uwtable
define linkonce_odr noundef ptr @_ZNK2c43yml4Tree2_pEm(ptr noundef nonnull align 8 dereferenceable(256) %0, i64 noundef %1) #3 comdat align 2 {
  %3 = alloca ptr, align 8
  %4 = alloca i64, align 8
  store ptr %0, ptr %3, align 8, !tbaa !96
  store i64 %1, ptr %4, align 8, !tbaa !15
  %5 = load ptr, ptr %3, align 8
  %6 = getelementptr inbounds nuw %"class.c4::yml::Tree", ptr %5, i32 0, i32 0
  %7 = load ptr, ptr %6, align 8, !tbaa !118
  %8 = load i64, ptr %4, align 8, !tbaa !15
  %9 = getelementptr inbounds nuw %"struct.c4::yml::NodeData", ptr %7, i64 %8
  ret ptr %9
}

; Function Attrs: mustprogress nounwind uwtable
define linkonce_odr void @_ZN2c43yml10NodeScalar5clearEv(ptr noundef nonnull align 8 dereferenceable(48) %0) #0 comdat align 2 personality ptr @__gxx_personality_v0 {
  %2 = alloca ptr, align 8
  store ptr %0, ptr %2, align 8, !tbaa !156
  %3 = load ptr, ptr %2, align 8
  %4 = getelementptr inbounds nuw %"struct.c4::yml::NodeScalar", ptr %3, i32 0, i32 0
  invoke void @_ZN2c415basic_substringIKcE5clearEv(ptr noundef nonnull align 8 dereferenceable(16) %4)
          to label %5 unwind label %10

5:                                                ; preds = %1
  %6 = getelementptr inbounds nuw %"struct.c4::yml::NodeScalar", ptr %3, i32 0, i32 1
  invoke void @_ZN2c415basic_substringIKcE5clearEv(ptr noundef nonnull align 8 dereferenceable(16) %6)
          to label %7 unwind label %10

7:                                                ; preds = %5
  %8 = getelementptr inbounds nuw %"struct.c4::yml::NodeScalar", ptr %3, i32 0, i32 2
  invoke void @_ZN2c415basic_substringIKcE5clearEv(ptr noundef nonnull align 8 dereferenceable(16) %8)
          to label %9 unwind label %10

9:                                                ; preds = %7
  ret void

10:                                               ; preds = %7, %5, %1
  %11 = landingpad { ptr, i32 }
          catch ptr null
  %12 = extractvalue { ptr, i32 } %11, 0
  call void @__clang_call_terminate(ptr %12) #27
  unreachable
}

; Function Attrs: inlinehint mustprogress nounwind uwtable
define linkonce_odr noundef ptr @_ZN2c43yml4Tree2_pEm(ptr noundef nonnull align 8 dereferenceable(256) %0, i64 noundef %1) #3 comdat align 2 {
  %3 = alloca ptr, align 8
  %4 = alloca i64, align 8
  store ptr %0, ptr %3, align 8, !tbaa !96
  store i64 %1, ptr %4, align 8, !tbaa !15
  %5 = load ptr, ptr %3, align 8
  %6 = getelementptr inbounds nuw %"class.c4::yml::Tree", ptr %5, i32 0, i32 0
  %7 = load ptr, ptr %6, align 8, !tbaa !118
  %8 = load i64, ptr %4, align 8, !tbaa !15
  %9 = getelementptr inbounds nuw %"struct.c4::yml::NodeData", ptr %7, i64 %8
  ret ptr %9
}

; Function Attrs: inlinehint mustprogress uwtable
define linkonce_odr void @_ZN2c43yml4Tree10_set_flagsEmm(ptr noundef nonnull align 8 dereferenceable(256) %0, i64 noundef %1, i64 noundef %2) #19 comdat align 2 {
  %4 = alloca ptr, align 8
  %5 = alloca i64, align 8
  %6 = alloca i64, align 8
  %7 = alloca %"struct.c4::yml::NodeType", align 8
  store ptr %0, ptr %4, align 8, !tbaa !96
  store i64 %1, ptr %5, align 8, !tbaa !15
  store i64 %2, ptr %6, align 8, !tbaa !15
  %8 = load ptr, ptr %4, align 8
  %9 = load i64, ptr %5, align 8, !tbaa !15
  %10 = load i64, ptr %6, align 8, !tbaa !15
  call void @_ZN2c43yml4Tree17_check_next_flagsEmm(ptr noundef nonnull align 8 dereferenceable(256) %8, i64 noundef %9, i64 noundef %10)
  call void @llvm.lifetime.start.p0(i64 8, ptr %7) #25
  %11 = load i64, ptr %6, align 8, !tbaa !15
  call void @_ZN2c43yml8NodeTypeC2Em(ptr noundef nonnull align 8 dereferenceable(8) %7, i64 noundef %11)
  %12 = load i64, ptr %5, align 8, !tbaa !15
  %13 = call noundef ptr @_ZN2c43yml4Tree2_pEm(ptr noundef nonnull align 8 dereferenceable(256) %8, i64 noundef %12)
  %14 = getelementptr inbounds nuw %"struct.c4::yml::NodeData", ptr %13, i32 0, i32 0
  call void @llvm.memcpy.p0.p0.i64(ptr align 8 %14, ptr align 8 %7, i64 8, i1 false), !tbaa.struct !148
  call void @llvm.lifetime.end.p0(i64 8, ptr %7) #25
  ret void
}

; Function Attrs: alwaysinline mustprogress uwtable
define linkonce_odr noundef zeroext i1 @_ZNK2c43yml4Tree13parent_is_seqEm(ptr noundef nonnull align 8 dereferenceable(256) %0, i64 noundef %1) #21 comdat align 2 {
  %3 = alloca ptr, align 8
  %4 = alloca i64, align 8
  store ptr %0, ptr %3, align 8, !tbaa !96
  store i64 %1, ptr %4, align 8, !tbaa !15
  %5 = load ptr, ptr %3, align 8
  %6 = load i64, ptr %4, align 8, !tbaa !15
  %7 = call noundef ptr @_ZNK2c43yml4Tree2_pEm(ptr noundef nonnull align 8 dereferenceable(256) %5, i64 noundef %6)
  %8 = getelementptr inbounds nuw %"struct.c4::yml::NodeData", ptr %7, i32 0, i32 3
  %9 = load i64, ptr %8, align 8, !tbaa !145
  %10 = call noundef zeroext i1 @_ZNK2c43yml4Tree6is_seqEm(ptr noundef nonnull align 8 dereferenceable(256) %5, i64 noundef %9)
  ret i1 %10
}

; Function Attrs: mustprogress uwtable
define linkonce_odr noundef i64 @_ZNK2c43yml4Tree6parentEm(ptr noundef nonnull align 8 dereferenceable(256) %0, i64 noundef %1) #1 comdat align 2 {
  %3 = alloca ptr, align 8
  %4 = alloca i64, align 8
  store ptr %0, ptr %3, align 8, !tbaa !96
  store i64 %1, ptr %4, align 8, !tbaa !15
  %5 = load ptr, ptr %3, align 8
  %6 = load i64, ptr %4, align 8, !tbaa !15
  %7 = call noundef ptr @_ZNK2c43yml4Tree2_pEm(ptr noundef nonnull align 8 dereferenceable(256) %5, i64 noundef %6)
  %8 = getelementptr inbounds nuw %"struct.c4::yml::NodeData", ptr %7, i32 0, i32 3
  %9 = load i64, ptr %8, align 8, !tbaa !145
  ret i64 %9
}

; Function Attrs: mustprogress uwtable
define linkonce_odr void @_ZN2c43yml8LocationC2EPKcmmm(ptr noundef nonnull align 8 dereferenceable(40) %0, ptr noundef %1, i64 noundef %2, i64 noundef %3, i64 noundef %4) unnamed_addr #1 comdat align 2 {
  %6 = alloca ptr, align 8
  %7 = alloca ptr, align 8
  %8 = alloca i64, align 8
  %9 = alloca i64, align 8
  %10 = alloca i64, align 8
  store ptr %0, ptr %6, align 8, !tbaa !81
  store ptr %1, ptr %7, align 8, !tbaa !20
  store i64 %2, ptr %8, align 8, !tbaa !15
  store i64 %3, ptr %9, align 8, !tbaa !15
  store i64 %4, ptr %10, align 8, !tbaa !15
  %11 = load ptr, ptr %6, align 8
  %12 = load i64, ptr %8, align 8, !tbaa !15
  %13 = load i64, ptr %9, align 8, !tbaa !15
  %14 = load i64, ptr %10, align 8, !tbaa !15
  call void @_ZN2c43yml7LineColC2Emmm(ptr noundef nonnull align 8 dereferenceable(24) %11, i64 noundef %12, i64 noundef %13, i64 noundef %14)
  %15 = getelementptr inbounds nuw %"struct.c4::yml::Location", ptr %11, i32 0, i32 1
  %16 = load ptr, ptr %7, align 8, !tbaa !20
  %17 = call { ptr, i64 } @_ZN2c410to_csubstrEPKc(ptr noundef %16)
  %18 = getelementptr inbounds nuw { ptr, i64 }, ptr %15, i32 0, i32 0
  %19 = extractvalue { ptr, i64 } %17, 0
  store ptr %19, ptr %18, align 8
  %20 = getelementptr inbounds nuw { ptr, i64 }, ptr %15, i32 0, i32 1
  %21 = extractvalue { ptr, i64 } %17, 1
  store i64 %21, ptr %20, align 8
  ret void
}

; Function Attrs: mustprogress uwtable
define linkonce_odr noundef zeroext i1 @_ZNK2c43yml4Tree12has_childrenEm(ptr noundef nonnull align 8 dereferenceable(256) %0, i64 noundef %1) #1 comdat align 2 {
  %3 = alloca ptr, align 8
  %4 = alloca i64, align 8
  store ptr %0, ptr %3, align 8, !tbaa !96
  store i64 %1, ptr %4, align 8, !tbaa !15
  %5 = load ptr, ptr %3, align 8
  %6 = load i64, ptr %4, align 8, !tbaa !15
  %7 = call noundef ptr @_ZNK2c43yml4Tree2_pEm(ptr noundef nonnull align 8 dereferenceable(256) %5, i64 noundef %6)
  %8 = getelementptr inbounds nuw %"struct.c4::yml::NodeData", ptr %7, i32 0, i32 4
  %9 = load i64, ptr %8, align 8, !tbaa !146
  %10 = icmp ne i64 %9, -1
  ret i1 %10
}

; Function Attrs: mustprogress uwtable
define void @_ZN2c43yml4Tree6to_seqEmm(ptr noundef nonnull align 8 dereferenceable(256) %0, i64 noundef %1, i64 noundef %2) #1 align 2 {
  %4 = alloca ptr, align 8
  %5 = alloca i64, align 8
  %6 = alloca i64, align 8
  %7 = alloca [37 x i8], align 16
  %8 = alloca %"struct.c4::yml::Location", align 8
  %9 = alloca [60 x i8], align 16
  %10 = alloca %"struct.c4::yml::Location", align 8
  store ptr %0, ptr %4, align 8, !tbaa !96
  store i64 %1, ptr %5, align 8, !tbaa !15
  store i64 %2, ptr %6, align 8, !tbaa !15
  %11 = load ptr, ptr %4, align 8
  br label %12

12:                                               ; preds = %3
  %13 = load i64, ptr %5, align 8, !tbaa !15
  %14 = call noundef zeroext i1 @_ZNK2c43yml4Tree12has_childrenEm(ptr noundef nonnull align 8 dereferenceable(256) %11, i64 noundef %13)
  br i1 %14, label %15, label %23

15:                                               ; preds = %12
  call void @llvm.lifetime.start.p0(i64 37, ptr %7) #25
  call void @llvm.memcpy.p0.p0.i64(ptr align 16 %7, ptr align 16 @__const._ZN2c43yml4Tree6to_seqEmm.msg, i64 37, i1 false)
  %16 = getelementptr inbounds nuw %"class.c4::yml::Tree", ptr %11, i32 0, i32 7
  %17 = getelementptr inbounds nuw %"struct.c4::yml::Callbacks", ptr %16, i32 0, i32 3
  %18 = load ptr, ptr %17, align 8, !tbaa !112
  %19 = getelementptr inbounds [37 x i8], ptr %7, i64 0, i64 0
  call void @_ZN2c43yml8LocationC2EPKcmmm(ptr noundef nonnull align 8 dereferenceable(40) %8, ptr noundef @.str, i64 noundef 0, i64 noundef 26593, i64 noundef 0)
  %20 = getelementptr inbounds nuw %"class.c4::yml::Tree", ptr %11, i32 0, i32 7
  %21 = getelementptr inbounds nuw %"struct.c4::yml::Callbacks", ptr %20, i32 0, i32 0
  %22 = load ptr, ptr %21, align 8, !tbaa !113
  call void %18(ptr noundef %19, i64 noundef 37, ptr noundef byval(%"struct.c4::yml::Location") align 8 %8, ptr noundef %22)
  call void @llvm.lifetime.end.p0(i64 37, ptr %7) #25
  br label %23

23:                                               ; preds = %15, %12
  br label %24

24:                                               ; preds = %23
  br label %25

25:                                               ; preds = %24
  %26 = load i64, ptr %5, align 8, !tbaa !15
  %27 = call noundef i64 @_ZNK2c43yml4Tree6parentEm(ptr noundef nonnull align 8 dereferenceable(256) %11, i64 noundef %26)
  %28 = icmp eq i64 %27, -1
  br i1 %28, label %40, label %29

29:                                               ; preds = %25
  %30 = load i64, ptr %5, align 8, !tbaa !15
  %31 = call noundef zeroext i1 @_ZNK2c43yml4Tree13parent_is_seqEm(ptr noundef nonnull align 8 dereferenceable(256) %11, i64 noundef %30)
  br i1 %31, label %40, label %32

32:                                               ; preds = %29
  call void @llvm.lifetime.start.p0(i64 60, ptr %9) #25
  call void @llvm.memcpy.p0.p0.i64(ptr align 16 %9, ptr align 16 @__const._ZN2c43yml4Tree6to_seqEmm.msg.172, i64 60, i1 false)
  %33 = getelementptr inbounds nuw %"class.c4::yml::Tree", ptr %11, i32 0, i32 7
  %34 = getelementptr inbounds nuw %"struct.c4::yml::Callbacks", ptr %33, i32 0, i32 3
  %35 = load ptr, ptr %34, align 8, !tbaa !112
  %36 = getelementptr inbounds [60 x i8], ptr %9, i64 0, i64 0
  call void @_ZN2c43yml8LocationC2EPKcmmm(ptr noundef nonnull align 8 dereferenceable(40) %10, ptr noundef @.str, i64 noundef 0, i64 noundef 26594, i64 noundef 0)
  %37 = getelementptr inbounds nuw %"class.c4::yml::Tree", ptr %11, i32 0, i32 7
  %38 = getelementptr inbounds nuw %"struct.c4::yml::Callbacks", ptr %37, i32 0, i32 0
  %39 = load ptr, ptr %38, align 8, !tbaa !113
  call void %35(ptr noundef %36, i64 noundef 60, ptr noundef byval(%"struct.c4::yml::Location") align 8 %10, ptr noundef %39)
  call void @llvm.lifetime.end.p0(i64 60, ptr %9) #25
  br label %40

40:                                               ; preds = %32, %29, %25
  br label %41

41:                                               ; preds = %40
  %42 = load i64, ptr %5, align 8, !tbaa !15
  %43 = load i64, ptr %6, align 8, !tbaa !15
  %44 = or i64 8, %43
  call void @_ZN2c43yml4Tree10_set_flagsEmm(ptr noundef nonnull align 8 dereferenceable(256) %11, i64 noundef %42, i64 noundef %44)
  %45 = load i64, ptr %5, align 8, !tbaa !15
  %46 = call noundef ptr @_ZN2c43yml4Tree2_pEm(ptr noundef nonnull align 8 dereferenceable(256) %11, i64 noundef %45)
  %47 = getelementptr inbounds nuw %"struct.c4::yml::NodeData", ptr %46, i32 0, i32 1
  call void @_ZN2c43yml10NodeScalar5clearEv(ptr noundef nonnull align 8 dereferenceable(48) %47) #25
  %48 = load i64, ptr %5, align 8, !tbaa !15
  %49 = call noundef ptr @_ZN2c43yml4Tree2_pEm(ptr noundef nonnull align 8 dereferenceable(256) %11, i64 noundef %48)
  %50 = getelementptr inbounds nuw %"struct.c4::yml::NodeData", ptr %49, i32 0, i32 2
  call void @_ZN2c43yml10NodeScalar5clearEv(ptr noundef nonnull align 8 dereferenceable(48) %50) #25
  ret void
}