; Function Attrs: mustprogress uwtable
define void @_ZN2c43yml4Tree6to_seqEmm(ptr noundef nonnull readonly align 8 captures(none) dereferenceable(256) %0, i64 noundef %1, i64 noundef %2) local_unnamed_addr #1 align 2 personality ptr @__gxx_personality_v0 {
  %4 = alloca [37 x i8], align 16
  %5 = alloca %"struct.c4::yml::Location", align 8
  %6 = alloca [60 x i8], align 16
  %7 = alloca %"struct.c4::yml::Location", align 8
  %8 = load ptr, ptr %0, align 8, !tbaa !116
  %9 = getelementptr inbounds nuw %"struct.c4::yml::NodeData", ptr %8, i64 %1, i32 4
  %10 = load i64, ptr %9, align 8, !tbaa !149
  %.not = icmp eq i64 %10, -1
  br i1 %.not, label %20, label %11

11:                                               ; preds = %3
  call void @llvm.lifetime.start.p0(i64 37, ptr nonnull %4) #39
  call void @llvm.memcpy.p0.p0.i64(ptr noundef nonnull align 16 dereferenceable(37) %4, ptr noundef nonnull align 16 dereferenceable(37) @__const._ZN2c43yml4Tree9to_streamEmm.msg, i64 37, i1 false)
  %12 = getelementptr inbounds nuw i8, ptr %0, i64 64
  %13 = getelementptr inbounds nuw i8, ptr %0, i64 88
  %14 = load ptr, ptr %13, align 8, !tbaa !102
  store i64 0, ptr %5, align 8, !tbaa !103
  %15 = getelementptr inbounds nuw i8, ptr %5, i64 8
  store i64 26593, ptr %15, align 8, !tbaa !104
  %16 = getelementptr inbounds nuw i8, ptr %5, i64 16
  store i64 0, ptr %16, align 8, !tbaa !58
  %17 = getelementptr inbounds nuw i8, ptr %5, i64 24
  store ptr @.str, ptr %17, align 8
  %18 = getelementptr inbounds nuw i8, ptr %5, i64 32
  store i64 127, ptr %18, align 8
  %19 = load ptr, ptr %12, align 8, !tbaa !105
  call void %14(ptr noundef nonnull %4, i64 noundef 37, ptr noundef nonnull byval(%"struct.c4::yml::Location") align 8 %5, ptr noundef %19)
  call void @llvm.lifetime.end.p0(i64 37, ptr nonnull %4) #39
  %.pre = load ptr, ptr %0, align 8, !tbaa !116
  br label %20

20:                                               ; preds = %11, %3
  %21 = phi ptr [ %.pre, %11 ], [ %8, %3 ]
  %22 = getelementptr inbounds nuw %"struct.c4::yml::NodeData", ptr %21, i64 %1, i32 3
  %23 = load i64, ptr %22, align 8, !tbaa !138
  %24 = icmp eq i64 %23, -1
  br i1 %24, label %38, label %25

25:                                               ; preds = %20
  %26 = getelementptr inbounds nuw %"struct.c4::yml::NodeData", ptr %21, i64 %23
  %27 = load i64, ptr %26, align 8, !tbaa !157
  %28 = and i64 %27, 8
  %.not7 = icmp eq i64 %28, 0
  br i1 %.not7, label %29, label %38

29:                                               ; preds = %25
  call void @llvm.lifetime.start.p0(i64 60, ptr nonnull %6) #39
  call void @llvm.memcpy.p0.p0.i64(ptr noundef nonnull align 16 dereferenceable(60) %6, ptr noundef nonnull align 16 dereferenceable(60) @__const._ZN2c43yml4Tree6to_seqEmm.msg.172, i64 60, i1 false)
  %30 = getelementptr inbounds nuw i8, ptr %0, i64 64
  %31 = getelementptr inbounds nuw i8, ptr %0, i64 88
  %32 = load ptr, ptr %31, align 8, !tbaa !102
  store i64 0, ptr %7, align 8, !tbaa !103
  %33 = getelementptr inbounds nuw i8, ptr %7, i64 8
  store i64 26594, ptr %33, align 8, !tbaa !104
  %34 = getelementptr inbounds nuw i8, ptr %7, i64 16
  store i64 0, ptr %34, align 8, !tbaa !58
  %35 = getelementptr inbounds nuw i8, ptr %7, i64 24
  store ptr @.str, ptr %35, align 8
  %36 = getelementptr inbounds nuw i8, ptr %7, i64 32
  store i64 127, ptr %36, align 8
  %37 = load ptr, ptr %30, align 8, !tbaa !105
  call void %32(ptr noundef nonnull %6, i64 noundef 60, ptr noundef nonnull byval(%"struct.c4::yml::Location") align 8 %7, ptr noundef %37)
  call void @llvm.lifetime.end.p0(i64 60, ptr nonnull %6) #39
  %.pre8 = load ptr, ptr %0, align 8, !tbaa !116
  br label %38

38:                                               ; preds = %20, %25, %29
  %39 = phi ptr [ %21, %20 ], [ %21, %25 ], [ %.pre8, %29 ]
  %40 = or i64 %2, 8
  %41 = getelementptr inbounds nuw %"struct.c4::yml::NodeData", ptr %39, i64 %1
  store i64 %40, ptr %41, align 8, !tbaa !152
  %42 = getelementptr inbounds nuw i8, ptr %41, i64 8
  call void @llvm.memset.p0.i64(ptr noundef nonnull align 8 dereferenceable(48) %42, i8 0, i64 48, i1 false)
  %43 = load ptr, ptr %0, align 8, !tbaa !116
  %44 = getelementptr inbounds nuw %"struct.c4::yml::NodeData", ptr %43, i64 %1, i32 2
  call void @llvm.memset.p0.i64(ptr noundef nonnull align 8 dereferenceable(48) %44, i8 0, i64 48, i1 false)
  ret void
}